target datalayout = "e-m:e-p270:32:32-p271:32:32-p272:64:64-i64:64-i128:128-f80:128-n8:16:32:64-S128"
target triple = "x86_64-pc-linux-gnu"

%"class.cv::Point_" = type { float, float }
%"class.cv::details::Ellipse" = type { %"class.cv::Point_", %"class.cv::Size_.23", float, float, float }
%"class.cv::Size_.23" = type { float, float }

; Function Attrs: inlinehint mustprogress nounwind uwtable
define linkonce_odr noundef float @_ZSt3sinf(float noundef %0) #6 comdat {
  %2 = alloca float, align 4
  store float %0, ptr %2, align 4, !tbaa !7
  %3 = load float, ptr %2, align 4, !tbaa !7
  %4 = call float @sinf(float noundef %3) #3, !tbaa !3
  ret float %4
}

; Function Attrs: inlinehint mustprogress nounwind uwtable
define linkonce_odr noundef float @_ZSt3cosf(float noundef %0) #6 comdat {
  %2 = alloca float, align 4
  store float %0, ptr %2, align 4, !tbaa !7
  %3 = load float, ptr %2, align 4, !tbaa !7
  %4 = call float @cosf(float noundef %3) #3, !tbaa !3
  ret float %4
}

; Function Attrs: mustprogress uwtable
define hidden void @_ZN2cv7details7EllipseC2ERKNS_6Point_IfEERKNS_5Size_IfEEf(ptr noundef nonnull align 4 dereferenceable(28) %0, ptr noundef nonnull align 4 dereferenceable(8) %1, ptr noundef nonnull align 4 dereferenceable(8) %2, float noundef %3) unnamed_addr #5 align 2 {
  %5 = alloca ptr, align 8
  %6 = alloca ptr, align 8
  %7 = alloca ptr, align 8
  %8 = alloca float, align 4
  store ptr %0, ptr %5, align 8, !tbaa !191
  store ptr %1, ptr %6, align 8, !tbaa !42
  store ptr %2, ptr %7, align 8, !tbaa !198
  store float %3, ptr %8, align 4, !tbaa !7
  %9 = load ptr, ptr %5, align 8
  %10 = getelementptr inbounds nuw %"class.cv::details::Ellipse", ptr %9, i32 0, i32 0
  %11 = load ptr, ptr %6, align 8, !tbaa !42
  call void @llvm.memcpy.p0.p0.i64(ptr align 4 %10, ptr align 4 %11, i64 8, i1 false), !tbaa.struct !41
  %12 = getelementptr inbounds nuw %"class.cv::details::Ellipse", ptr %9, i32 0, i32 1
  %13 = load ptr, ptr %7, align 8, !tbaa !198
  call void @llvm.memcpy.p0.p0.i64(ptr align 4 %12, ptr align 4 %13, i64 8, i1 false), !tbaa.struct !41
  %14 = getelementptr inbounds nuw %"class.cv::details::Ellipse", ptr %9, i32 0, i32 2
  %15 = load float, ptr %8, align 4, !tbaa !7
  store float %15, ptr %14, align 4, !tbaa !193
  %16 = getelementptr inbounds nuw %"class.cv::details::Ellipse", ptr %9, i32 0, i32 3
  %17 = load float, ptr %8, align 4, !tbaa !7
  %18 = fneg float %17
  %19 = call noundef float @_ZSt3cosf(float noundef %18)
  store float %19, ptr %16, align 4, !tbaa !196
  %20 = getelementptr inbounds nuw %"class.cv::details::Ellipse", ptr %9, i32 0, i32 4
  %21 = load float, ptr %8, align 4, !tbaa !7
  %22 = fneg float %21
  %23 = call noundef float @_ZSt3sinf(float noundef %22)
  store float %23, ptr %20, align 4, !tbaa !197
  ret void
}