; Function Attrs: mustprogress nofree nounwind willreturn memory(write, argmem: readwrite) uwtable
define hidden void @_ZN2cv7details7EllipseC2ERKNS_6Point_IfEERKNS_5Size_IfEEf(ptr noundef nonnull writeonly align 4 captures(none) dereferenceable(28) initializes((0, 28)) %0, ptr noundef nonnull readonly align 4 captures(none) dereferenceable(8) %1, ptr noundef nonnull readonly align 4 captures(none) dereferenceable(8) %2, float noundef %3) unnamed_addr #15 align 2 {
  %5 = load i64, ptr %1, align 4
  store i64 %5, ptr %0, align 4
  %6 = getelementptr inbounds nuw i8, ptr %0, i64 8
  %7 = load i64, ptr %2, align 4
  store i64 %7, ptr %6, align 4
  %8 = getelementptr inbounds nuw i8, ptr %0, i64 16
  store float %3, ptr %8, align 4, !tbaa !163
  %9 = getelementptr inbounds nuw i8, ptr %0, i64 20
  %10 = fneg float %3
  %11 = tail call noundef float @cosf(float noundef %10) #37, !tbaa !20
  store float %11, ptr %9, align 4, !tbaa !166
  %12 = getelementptr inbounds nuw i8, ptr %0, i64 24
  %13 = tail call noundef float @sinf(float noundef %10) #37, !tbaa !20
  store float %13, ptr %12, align 4, !tbaa !167
  ret void
}